ARM GAS  /tmp/cckxzEmz.s 			page 1


   1              		.cpu cortex-m3
   2              		.arch armv7-m
   3              		.fpu softvfp
   4              		.eabi_attribute 20, 1
   5              		.eabi_attribute 21, 1
   6              		.eabi_attribute 23, 3
   7              		.eabi_attribute 24, 1
   8              		.eabi_attribute 25, 1
   9              		.eabi_attribute 26, 1
  10              		.eabi_attribute 30, 1
  11              		.eabi_attribute 34, 1
  12              		.eabi_attribute 18, 4
  13              		.file	"can.c"
  14              		.text
  15              	.Ltext0:
  16              		.cfi_sections	.debug_frame
  17              		.file 1 "Core/Src/can.c"
  18              		.section	.text.MX_CAN_Init,"ax",%progbits
  19              		.align	1
  20              		.global	MX_CAN_Init
  21              		.syntax unified
  22              		.thumb
  23              		.thumb_func
  25              	MX_CAN_Init:
  26              	.LFB65:
   1:Core/Src/can.c **** /* USER CODE BEGIN Header */
   2:Core/Src/can.c **** /**
   3:Core/Src/can.c ****   ******************************************************************************
   4:Core/Src/can.c ****   * @file    can.c
   5:Core/Src/can.c ****   * @brief   This file provides code for the configuration
   6:Core/Src/can.c ****   *          of the CAN instances.
   7:Core/Src/can.c ****   ******************************************************************************
   8:Core/Src/can.c ****   * @attention
   9:Core/Src/can.c ****   *
  10:Core/Src/can.c ****   * Copyright (c) 2024 STMicroelectronics.
  11:Core/Src/can.c ****   * All rights reserved.
  12:Core/Src/can.c ****   *
  13:Core/Src/can.c ****   * This software is licensed under terms that can be found in the LICENSE file
  14:Core/Src/can.c ****   * in the root directory of this software component.
  15:Core/Src/can.c ****   * If no LICENSE file comes with this software, it is provided AS-IS.
  16:Core/Src/can.c ****   *
  17:Core/Src/can.c ****   ******************************************************************************
  18:Core/Src/can.c ****   */
  19:Core/Src/can.c **** /* USER CODE END Header */
  20:Core/Src/can.c **** /* Includes ------------------------------------------------------------------*/
  21:Core/Src/can.c **** #include "can.h"
  22:Core/Src/can.c **** 
  23:Core/Src/can.c **** /* USER CODE BEGIN 0 */
  24:Core/Src/can.c **** CAN_TxHeaderTypeDef txheader;
  25:Core/Src/can.c **** CAN_FilterTypeDef can_filter;
  26:Core/Src/can.c **** uint32_t txmailbox;
  27:Core/Src/can.c **** 
  28:Core/Src/can.c **** /* USER CODE END 0 */
  29:Core/Src/can.c **** 
  30:Core/Src/can.c **** CAN_HandleTypeDef hcan;
  31:Core/Src/can.c **** 
  32:Core/Src/can.c **** /* CAN init function */
ARM GAS  /tmp/cckxzEmz.s 			page 2


  33:Core/Src/can.c **** void MX_CAN_Init(void)
  34:Core/Src/can.c **** {
  27              		.loc 1 34 1 view -0
  28              		.cfi_startproc
  29              		@ args = 0, pretend = 0, frame = 0
  30              		@ frame_needed = 0, uses_anonymous_args = 0
  31 0000 10B5     		push	{r4, lr}
  32              		.cfi_def_cfa_offset 8
  33              		.cfi_offset 4, -8
  34              		.cfi_offset 14, -4
  35:Core/Src/can.c **** 
  36:Core/Src/can.c ****   /* USER CODE BEGIN CAN_Init 0 */
  37:Core/Src/can.c ****   txheader.StdId = 0x446;
  35              		.loc 1 37 3 view .LVU1
  36              		.loc 1 37 18 is_stmt 0 view .LVU2
  37 0002 1B4A     		ldr	r2, .L5
  38 0004 40F24643 		movw	r3, #1094
  39 0008 1360     		str	r3, [r2]
  38:Core/Src/can.c ****   txheader.DLC = 8;
  40              		.loc 1 38 3 is_stmt 1 view .LVU3
  41              		.loc 1 38 16 is_stmt 0 view .LVU4
  42 000a 0823     		movs	r3, #8
  43 000c 1361     		str	r3, [r2, #16]
  39:Core/Src/can.c ****   txheader.IDE = CAN_ID_STD;
  44              		.loc 1 39 3 is_stmt 1 view .LVU5
  45              		.loc 1 39 16 is_stmt 0 view .LVU6
  46 000e 0023     		movs	r3, #0
  47 0010 9360     		str	r3, [r2, #8]
  40:Core/Src/can.c ****   txheader.RTR = CAN_RTR_DATA;
  48              		.loc 1 40 3 is_stmt 1 view .LVU7
  49              		.loc 1 40 16 is_stmt 0 view .LVU8
  50 0012 D360     		str	r3, [r2, #12]
  41:Core/Src/can.c **** 
  42:Core/Src/can.c ****   can_filter.FilterActivation = CAN_FILTER_ENABLE;
  51              		.loc 1 42 3 is_stmt 1 view .LVU9
  52              		.loc 1 42 31 is_stmt 0 view .LVU10
  53 0014 174A     		ldr	r2, .L5+4
  54 0016 0121     		movs	r1, #1
  55 0018 1162     		str	r1, [r2, #32]
  43:Core/Src/can.c ****   can_filter.FilterBank = 0;
  56              		.loc 1 43 3 is_stmt 1 view .LVU11
  57              		.loc 1 43 25 is_stmt 0 view .LVU12
  58 001a 5361     		str	r3, [r2, #20]
  44:Core/Src/can.c ****   can_filter.FilterFIFOAssignment = CAN_FilterFIFO0;
  59              		.loc 1 44 3 is_stmt 1 view .LVU13
  60              		.loc 1 44 35 is_stmt 0 view .LVU14
  61 001c 1361     		str	r3, [r2, #16]
  45:Core/Src/can.c ****   can_filter.FilterMode = CAN_FILTERMODE_IDMASK;
  62              		.loc 1 45 3 is_stmt 1 view .LVU15
  63              		.loc 1 45 25 is_stmt 0 view .LVU16
  64 001e 9361     		str	r3, [r2, #24]
  46:Core/Src/can.c ****   can_filter.FilterScale = CAN_FILTERSCALE_32BIT;
  65              		.loc 1 46 3 is_stmt 1 view .LVU17
  66              		.loc 1 46 26 is_stmt 0 view .LVU18
  67 0020 D161     		str	r1, [r2, #28]
  47:Core/Src/can.c ****   can_filter.FilterIdHigh = 0;
  68              		.loc 1 47 3 is_stmt 1 view .LVU19
ARM GAS  /tmp/cckxzEmz.s 			page 3


  69              		.loc 1 47 27 is_stmt 0 view .LVU20
  70 0022 1360     		str	r3, [r2]
  48:Core/Src/can.c ****   can_filter.FilterIdLow = 0;
  71              		.loc 1 48 3 is_stmt 1 view .LVU21
  72              		.loc 1 48 26 is_stmt 0 view .LVU22
  73 0024 5360     		str	r3, [r2, #4]
  49:Core/Src/can.c ****   can_filter.FilterMaskIdHigh = 0;
  74              		.loc 1 49 3 is_stmt 1 view .LVU23
  75              		.loc 1 49 31 is_stmt 0 view .LVU24
  76 0026 9360     		str	r3, [r2, #8]
  50:Core/Src/can.c ****   can_filter.FilterMaskIdLow = 0;
  77              		.loc 1 50 3 is_stmt 1 view .LVU25
  78              		.loc 1 50 30 is_stmt 0 view .LVU26
  79 0028 D360     		str	r3, [r2, #12]
  51:Core/Src/can.c ****   /* USER CODE END CAN_Init 0 */
  52:Core/Src/can.c **** 
  53:Core/Src/can.c ****   /* USER CODE BEGIN CAN_Init 1 */
  54:Core/Src/can.c **** 
  55:Core/Src/can.c ****   /* USER CODE END CAN_Init 1 */
  56:Core/Src/can.c ****   hcan.Instance = CAN1;
  80              		.loc 1 56 3 is_stmt 1 view .LVU27
  81              		.loc 1 56 17 is_stmt 0 view .LVU28
  82 002a 1348     		ldr	r0, .L5+8
  83 002c 134A     		ldr	r2, .L5+12
  84 002e 0260     		str	r2, [r0]
  57:Core/Src/can.c ****   hcan.Init.Prescaler = 20;
  85              		.loc 1 57 3 is_stmt 1 view .LVU29
  86              		.loc 1 57 23 is_stmt 0 view .LVU30
  87 0030 1422     		movs	r2, #20
  88 0032 4260     		str	r2, [r0, #4]
  58:Core/Src/can.c ****   hcan.Init.Mode = CAN_MODE_NORMAL;
  89              		.loc 1 58 3 is_stmt 1 view .LVU31
  90              		.loc 1 58 18 is_stmt 0 view .LVU32
  91 0034 8360     		str	r3, [r0, #8]
  59:Core/Src/can.c ****   hcan.Init.SyncJumpWidth = CAN_SJW_1TQ;
  92              		.loc 1 59 3 is_stmt 1 view .LVU33
  93              		.loc 1 59 27 is_stmt 0 view .LVU34
  94 0036 C360     		str	r3, [r0, #12]
  60:Core/Src/can.c ****   hcan.Init.TimeSeg1 = CAN_BS1_15TQ;
  95              		.loc 1 60 3 is_stmt 1 view .LVU35
  96              		.loc 1 60 22 is_stmt 0 view .LVU36
  97 0038 4FF46022 		mov	r2, #917504
  98 003c 0261     		str	r2, [r0, #16]
  61:Core/Src/can.c ****   hcan.Init.TimeSeg2 = CAN_BS2_2TQ;
  99              		.loc 1 61 3 is_stmt 1 view .LVU37
 100              		.loc 1 61 22 is_stmt 0 view .LVU38
 101 003e 4FF48012 		mov	r2, #1048576
 102 0042 4261     		str	r2, [r0, #20]
  62:Core/Src/can.c ****   hcan.Init.TimeTriggeredMode = DISABLE;
 103              		.loc 1 62 3 is_stmt 1 view .LVU39
 104              		.loc 1 62 31 is_stmt 0 view .LVU40
 105 0044 0376     		strb	r3, [r0, #24]
  63:Core/Src/can.c ****   hcan.Init.AutoBusOff = DISABLE;
 106              		.loc 1 63 3 is_stmt 1 view .LVU41
 107              		.loc 1 63 24 is_stmt 0 view .LVU42
 108 0046 4376     		strb	r3, [r0, #25]
  64:Core/Src/can.c ****   hcan.Init.AutoWakeUp = DISABLE;
ARM GAS  /tmp/cckxzEmz.s 			page 4


 109              		.loc 1 64 3 is_stmt 1 view .LVU43
 110              		.loc 1 64 24 is_stmt 0 view .LVU44
 111 0048 8376     		strb	r3, [r0, #26]
  65:Core/Src/can.c ****   hcan.Init.AutoRetransmission = DISABLE;
 112              		.loc 1 65 3 is_stmt 1 view .LVU45
 113              		.loc 1 65 32 is_stmt 0 view .LVU46
 114 004a C376     		strb	r3, [r0, #27]
  66:Core/Src/can.c ****   hcan.Init.ReceiveFifoLocked = DISABLE;
 115              		.loc 1 66 3 is_stmt 1 view .LVU47
 116              		.loc 1 66 31 is_stmt 0 view .LVU48
 117 004c 0377     		strb	r3, [r0, #28]
  67:Core/Src/can.c ****   hcan.Init.TransmitFifoPriority = DISABLE;
 118              		.loc 1 67 3 is_stmt 1 view .LVU49
 119              		.loc 1 67 34 is_stmt 0 view .LVU50
 120 004e 4377     		strb	r3, [r0, #29]
  68:Core/Src/can.c ****   if (HAL_CAN_Init(&hcan) != HAL_OK)
 121              		.loc 1 68 3 is_stmt 1 view .LVU51
 122              		.loc 1 68 7 is_stmt 0 view .LVU52
 123 0050 FFF7FEFF 		bl	HAL_CAN_Init
 124              	.LVL0:
 125              		.loc 1 68 6 discriminator 1 view .LVU53
 126 0054 40B9     		cbnz	r0, .L4
 127              	.L2:
  69:Core/Src/can.c ****   {
  70:Core/Src/can.c ****     Error_Handler();
  71:Core/Src/can.c ****   }
  72:Core/Src/can.c ****   /* USER CODE BEGIN CAN_Init 2 */
  73:Core/Src/can.c ****   HAL_CAN_ConfigFilter(&hcan, &can_filter);
 128              		.loc 1 73 3 is_stmt 1 view .LVU54
 129 0056 084C     		ldr	r4, .L5+8
 130 0058 0649     		ldr	r1, .L5+4
 131 005a 2046     		mov	r0, r4
 132 005c FFF7FEFF 		bl	HAL_CAN_ConfigFilter
 133              	.LVL1:
  74:Core/Src/can.c ****   HAL_CAN_Start(&hcan);
 134              		.loc 1 74 3 view .LVU55
 135 0060 2046     		mov	r0, r4
 136 0062 FFF7FEFF 		bl	HAL_CAN_Start
 137              	.LVL2:
  75:Core/Src/can.c ****   /* USER CODE END CAN_Init 2 */
  76:Core/Src/can.c **** 
  77:Core/Src/can.c **** }
 138              		.loc 1 77 1 is_stmt 0 view .LVU56
 139 0066 10BD     		pop	{r4, pc}
 140              	.L4:
  70:Core/Src/can.c ****   }
 141              		.loc 1 70 5 is_stmt 1 view .LVU57
 142 0068 FFF7FEFF 		bl	Error_Handler
 143              	.LVL3:
 144 006c F3E7     		b	.L2
 145              	.L6:
 146 006e 00BF     		.align	2
 147              	.L5:
 148 0070 00000000 		.word	txheader
 149 0074 00000000 		.word	can_filter
 150 0078 00000000 		.word	hcan
 151 007c 00640040 		.word	1073767424
ARM GAS  /tmp/cckxzEmz.s 			page 5


 152              		.cfi_endproc
 153              	.LFE65:
 155              		.section	.text.HAL_CAN_MspInit,"ax",%progbits
 156              		.align	1
 157              		.global	HAL_CAN_MspInit
 158              		.syntax unified
 159              		.thumb
 160              		.thumb_func
 162              	HAL_CAN_MspInit:
 163              	.LVL4:
 164              	.LFB66:
  78:Core/Src/can.c **** 
  79:Core/Src/can.c **** void HAL_CAN_MspInit(CAN_HandleTypeDef* canHandle)
  80:Core/Src/can.c **** {
 165              		.loc 1 80 1 view -0
 166              		.cfi_startproc
 167              		@ args = 0, pretend = 0, frame = 24
 168              		@ frame_needed = 0, uses_anonymous_args = 0
 169              		.loc 1 80 1 is_stmt 0 view .LVU59
 170 0000 10B5     		push	{r4, lr}
 171              		.cfi_def_cfa_offset 8
 172              		.cfi_offset 4, -8
 173              		.cfi_offset 14, -4
 174 0002 86B0     		sub	sp, sp, #24
 175              		.cfi_def_cfa_offset 32
  81:Core/Src/can.c **** 
  82:Core/Src/can.c ****   GPIO_InitTypeDef GPIO_InitStruct = {0};
 176              		.loc 1 82 3 is_stmt 1 view .LVU60
 177              		.loc 1 82 20 is_stmt 0 view .LVU61
 178 0004 0023     		movs	r3, #0
 179 0006 0293     		str	r3, [sp, #8]
 180 0008 0393     		str	r3, [sp, #12]
 181 000a 0493     		str	r3, [sp, #16]
 182 000c 0593     		str	r3, [sp, #20]
  83:Core/Src/can.c ****   if(canHandle->Instance==CAN1)
 183              		.loc 1 83 3 is_stmt 1 view .LVU62
 184              		.loc 1 83 15 is_stmt 0 view .LVU63
 185 000e 0268     		ldr	r2, [r0]
 186              		.loc 1 83 5 view .LVU64
 187 0010 1E4B     		ldr	r3, .L11
 188 0012 9A42     		cmp	r2, r3
 189 0014 01D0     		beq	.L10
 190              	.LVL5:
 191              	.L7:
  84:Core/Src/can.c ****   {
  85:Core/Src/can.c ****   /* USER CODE BEGIN CAN1_MspInit 0 */
  86:Core/Src/can.c **** 
  87:Core/Src/can.c ****   /* USER CODE END CAN1_MspInit 0 */
  88:Core/Src/can.c ****     /* CAN1 clock enable */
  89:Core/Src/can.c ****     __HAL_RCC_CAN1_CLK_ENABLE();
  90:Core/Src/can.c **** 
  91:Core/Src/can.c ****     __HAL_RCC_GPIOB_CLK_ENABLE();
  92:Core/Src/can.c ****     /**CAN GPIO Configuration
  93:Core/Src/can.c ****     PB8     ------> CAN_RX
  94:Core/Src/can.c ****     PB9     ------> CAN_TX
  95:Core/Src/can.c ****     */
  96:Core/Src/can.c ****     GPIO_InitStruct.Pin = GPIO_PIN_8;
ARM GAS  /tmp/cckxzEmz.s 			page 6


  97:Core/Src/can.c ****     GPIO_InitStruct.Mode = GPIO_MODE_INPUT;
  98:Core/Src/can.c ****     GPIO_InitStruct.Pull = GPIO_NOPULL;
  99:Core/Src/can.c ****     HAL_GPIO_Init(GPIOB, &GPIO_InitStruct);
 100:Core/Src/can.c **** 
 101:Core/Src/can.c ****     GPIO_InitStruct.Pin = GPIO_PIN_9;
 102:Core/Src/can.c ****     GPIO_InitStruct.Mode = GPIO_MODE_AF_PP;
 103:Core/Src/can.c ****     GPIO_InitStruct.Speed = GPIO_SPEED_FREQ_HIGH;
 104:Core/Src/can.c ****     HAL_GPIO_Init(GPIOB, &GPIO_InitStruct);
 105:Core/Src/can.c **** 
 106:Core/Src/can.c ****     __HAL_AFIO_REMAP_CAN1_2();
 107:Core/Src/can.c **** 
 108:Core/Src/can.c ****     /* CAN1 interrupt Init */
 109:Core/Src/can.c ****     HAL_NVIC_SetPriority(USB_LP_CAN1_RX0_IRQn, 5, 0);
 110:Core/Src/can.c ****     HAL_NVIC_EnableIRQ(USB_LP_CAN1_RX0_IRQn);
 111:Core/Src/can.c ****   /* USER CODE BEGIN CAN1_MspInit 1 */
 112:Core/Src/can.c **** 
 113:Core/Src/can.c ****   /* USER CODE END CAN1_MspInit 1 */
 114:Core/Src/can.c ****   }
 115:Core/Src/can.c **** }
 192              		.loc 1 115 1 view .LVU65
 193 0016 06B0     		add	sp, sp, #24
 194              		.cfi_remember_state
 195              		.cfi_def_cfa_offset 8
 196              		@ sp needed
 197 0018 10BD     		pop	{r4, pc}
 198              	.LVL6:
 199              	.L10:
 200              		.cfi_restore_state
  89:Core/Src/can.c **** 
 201              		.loc 1 89 5 is_stmt 1 view .LVU66
 202              	.LBB2:
  89:Core/Src/can.c **** 
 203              		.loc 1 89 5 view .LVU67
  89:Core/Src/can.c **** 
 204              		.loc 1 89 5 view .LVU68
 205 001a 03F5D633 		add	r3, r3, #109568
 206 001e DA69     		ldr	r2, [r3, #28]
 207 0020 42F00072 		orr	r2, r2, #33554432
 208 0024 DA61     		str	r2, [r3, #28]
  89:Core/Src/can.c **** 
 209              		.loc 1 89 5 view .LVU69
 210 0026 DA69     		ldr	r2, [r3, #28]
 211 0028 02F00072 		and	r2, r2, #33554432
 212 002c 0092     		str	r2, [sp]
  89:Core/Src/can.c **** 
 213              		.loc 1 89 5 view .LVU70
 214 002e 009A     		ldr	r2, [sp]
 215              	.LBE2:
  89:Core/Src/can.c **** 
 216              		.loc 1 89 5 view .LVU71
  91:Core/Src/can.c ****     /**CAN GPIO Configuration
 217              		.loc 1 91 5 view .LVU72
 218              	.LBB3:
  91:Core/Src/can.c ****     /**CAN GPIO Configuration
 219              		.loc 1 91 5 view .LVU73
  91:Core/Src/can.c ****     /**CAN GPIO Configuration
 220              		.loc 1 91 5 view .LVU74
ARM GAS  /tmp/cckxzEmz.s 			page 7


 221 0030 9A69     		ldr	r2, [r3, #24]
 222 0032 42F00802 		orr	r2, r2, #8
 223 0036 9A61     		str	r2, [r3, #24]
  91:Core/Src/can.c ****     /**CAN GPIO Configuration
 224              		.loc 1 91 5 view .LVU75
 225 0038 9B69     		ldr	r3, [r3, #24]
 226 003a 03F00803 		and	r3, r3, #8
 227 003e 0193     		str	r3, [sp, #4]
  91:Core/Src/can.c ****     /**CAN GPIO Configuration
 228              		.loc 1 91 5 view .LVU76
 229 0040 019B     		ldr	r3, [sp, #4]
 230              	.LBE3:
  91:Core/Src/can.c ****     /**CAN GPIO Configuration
 231              		.loc 1 91 5 view .LVU77
  96:Core/Src/can.c ****     GPIO_InitStruct.Mode = GPIO_MODE_INPUT;
 232              		.loc 1 96 5 view .LVU78
  96:Core/Src/can.c ****     GPIO_InitStruct.Mode = GPIO_MODE_INPUT;
 233              		.loc 1 96 25 is_stmt 0 view .LVU79
 234 0042 4FF48073 		mov	r3, #256
 235 0046 0293     		str	r3, [sp, #8]
  97:Core/Src/can.c ****     GPIO_InitStruct.Pull = GPIO_NOPULL;
 236              		.loc 1 97 5 is_stmt 1 view .LVU80
  98:Core/Src/can.c ****     HAL_GPIO_Init(GPIOB, &GPIO_InitStruct);
 237              		.loc 1 98 5 view .LVU81
  99:Core/Src/can.c **** 
 238              		.loc 1 99 5 view .LVU82
 239 0048 114C     		ldr	r4, .L11+4
 240 004a 02A9     		add	r1, sp, #8
 241 004c 2046     		mov	r0, r4
 242              	.LVL7:
  99:Core/Src/can.c **** 
 243              		.loc 1 99 5 is_stmt 0 view .LVU83
 244 004e FFF7FEFF 		bl	HAL_GPIO_Init
 245              	.LVL8:
 101:Core/Src/can.c ****     GPIO_InitStruct.Mode = GPIO_MODE_AF_PP;
 246              		.loc 1 101 5 is_stmt 1 view .LVU84
 101:Core/Src/can.c ****     GPIO_InitStruct.Mode = GPIO_MODE_AF_PP;
 247              		.loc 1 101 25 is_stmt 0 view .LVU85
 248 0052 4FF40073 		mov	r3, #512
 249 0056 0293     		str	r3, [sp, #8]
 102:Core/Src/can.c ****     GPIO_InitStruct.Speed = GPIO_SPEED_FREQ_HIGH;
 250              		.loc 1 102 5 is_stmt 1 view .LVU86
 102:Core/Src/can.c ****     GPIO_InitStruct.Speed = GPIO_SPEED_FREQ_HIGH;
 251              		.loc 1 102 26 is_stmt 0 view .LVU87
 252 0058 0223     		movs	r3, #2
 253 005a 0393     		str	r3, [sp, #12]
 103:Core/Src/can.c ****     HAL_GPIO_Init(GPIOB, &GPIO_InitStruct);
 254              		.loc 1 103 5 is_stmt 1 view .LVU88
 103:Core/Src/can.c ****     HAL_GPIO_Init(GPIOB, &GPIO_InitStruct);
 255              		.loc 1 103 27 is_stmt 0 view .LVU89
 256 005c 0323     		movs	r3, #3
 257 005e 0593     		str	r3, [sp, #20]
 104:Core/Src/can.c **** 
 258              		.loc 1 104 5 is_stmt 1 view .LVU90
 259 0060 02A9     		add	r1, sp, #8
 260 0062 2046     		mov	r0, r4
 261 0064 FFF7FEFF 		bl	HAL_GPIO_Init
ARM GAS  /tmp/cckxzEmz.s 			page 8


 262              	.LVL9:
 106:Core/Src/can.c **** 
 263              		.loc 1 106 5 view .LVU91
 264              	.LBB4:
 106:Core/Src/can.c **** 
 265              		.loc 1 106 5 view .LVU92
 266 0068 0A4A     		ldr	r2, .L11+8
 267 006a 5368     		ldr	r3, [r2, #4]
 268              	.LVL10:
 106:Core/Src/can.c **** 
 269              		.loc 1 106 5 view .LVU93
 270 006c 23F4C043 		bic	r3, r3, #24576
 271              	.LVL11:
 106:Core/Src/can.c **** 
 272              		.loc 1 106 5 view .LVU94
 106:Core/Src/can.c **** 
 273              		.loc 1 106 5 view .LVU95
 274 0070 43F0E063 		orr	r3, r3, #117440512
 275              	.LVL12:
 106:Core/Src/can.c **** 
 276              		.loc 1 106 5 is_stmt 0 view .LVU96
 277 0074 43F48043 		orr	r3, r3, #16384
 278              	.LVL13:
 106:Core/Src/can.c **** 
 279              		.loc 1 106 5 is_stmt 1 view .LVU97
 280 0078 5360     		str	r3, [r2, #4]
 281              	.LBE4:
 106:Core/Src/can.c **** 
 282              		.loc 1 106 5 view .LVU98
 109:Core/Src/can.c ****     HAL_NVIC_EnableIRQ(USB_LP_CAN1_RX0_IRQn);
 283              		.loc 1 109 5 view .LVU99
 284 007a 0022     		movs	r2, #0
 285 007c 0521     		movs	r1, #5
 286 007e 1420     		movs	r0, #20
 287 0080 FFF7FEFF 		bl	HAL_NVIC_SetPriority
 288              	.LVL14:
 110:Core/Src/can.c ****   /* USER CODE BEGIN CAN1_MspInit 1 */
 289              		.loc 1 110 5 view .LVU100
 290 0084 1420     		movs	r0, #20
 291 0086 FFF7FEFF 		bl	HAL_NVIC_EnableIRQ
 292              	.LVL15:
 293              		.loc 1 115 1 is_stmt 0 view .LVU101
 294 008a C4E7     		b	.L7
 295              	.L12:
 296              		.align	2
 297              	.L11:
 298 008c 00640040 		.word	1073767424
 299 0090 000C0140 		.word	1073810432
 300 0094 00000140 		.word	1073807360
 301              		.cfi_endproc
 302              	.LFE66:
 304              		.section	.text.HAL_CAN_MspDeInit,"ax",%progbits
 305              		.align	1
 306              		.global	HAL_CAN_MspDeInit
 307              		.syntax unified
 308              		.thumb
 309              		.thumb_func
ARM GAS  /tmp/cckxzEmz.s 			page 9


 311              	HAL_CAN_MspDeInit:
 312              	.LVL16:
 313              	.LFB67:
 116:Core/Src/can.c **** 
 117:Core/Src/can.c **** void HAL_CAN_MspDeInit(CAN_HandleTypeDef* canHandle)
 118:Core/Src/can.c **** {
 314              		.loc 1 118 1 is_stmt 1 view -0
 315              		.cfi_startproc
 316              		@ args = 0, pretend = 0, frame = 0
 317              		@ frame_needed = 0, uses_anonymous_args = 0
 318              		.loc 1 118 1 is_stmt 0 view .LVU103
 319 0000 08B5     		push	{r3, lr}
 320              		.cfi_def_cfa_offset 8
 321              		.cfi_offset 3, -8
 322              		.cfi_offset 14, -4
 119:Core/Src/can.c **** 
 120:Core/Src/can.c ****   if(canHandle->Instance==CAN1)
 323              		.loc 1 120 3 is_stmt 1 view .LVU104
 324              		.loc 1 120 15 is_stmt 0 view .LVU105
 325 0002 0268     		ldr	r2, [r0]
 326              		.loc 1 120 5 view .LVU106
 327 0004 084B     		ldr	r3, .L17
 328 0006 9A42     		cmp	r2, r3
 329 0008 00D0     		beq	.L16
 330              	.LVL17:
 331              	.L13:
 121:Core/Src/can.c ****   {
 122:Core/Src/can.c ****   /* USER CODE BEGIN CAN1_MspDeInit 0 */
 123:Core/Src/can.c **** 
 124:Core/Src/can.c ****   /* USER CODE END CAN1_MspDeInit 0 */
 125:Core/Src/can.c ****     /* Peripheral clock disable */
 126:Core/Src/can.c ****     __HAL_RCC_CAN1_CLK_DISABLE();
 127:Core/Src/can.c **** 
 128:Core/Src/can.c ****     /**CAN GPIO Configuration
 129:Core/Src/can.c ****     PB8     ------> CAN_RX
 130:Core/Src/can.c ****     PB9     ------> CAN_TX
 131:Core/Src/can.c ****     */
 132:Core/Src/can.c ****     HAL_GPIO_DeInit(GPIOB, GPIO_PIN_8|GPIO_PIN_9);
 133:Core/Src/can.c **** 
 134:Core/Src/can.c ****     /* CAN1 interrupt Deinit */
 135:Core/Src/can.c ****     HAL_NVIC_DisableIRQ(USB_LP_CAN1_RX0_IRQn);
 136:Core/Src/can.c ****   /* USER CODE BEGIN CAN1_MspDeInit 1 */
 137:Core/Src/can.c **** 
 138:Core/Src/can.c ****   /* USER CODE END CAN1_MspDeInit 1 */
 139:Core/Src/can.c ****   }
 140:Core/Src/can.c **** }
 332              		.loc 1 140 1 view .LVU107
 333 000a 08BD     		pop	{r3, pc}
 334              	.LVL18:
 335              	.L16:
 126:Core/Src/can.c **** 
 336              		.loc 1 126 5 is_stmt 1 view .LVU108
 337 000c 074A     		ldr	r2, .L17+4
 338 000e D369     		ldr	r3, [r2, #28]
 339 0010 23F00073 		bic	r3, r3, #33554432
 340 0014 D361     		str	r3, [r2, #28]
 132:Core/Src/can.c **** 
ARM GAS  /tmp/cckxzEmz.s 			page 10


 341              		.loc 1 132 5 view .LVU109
 342 0016 4FF44071 		mov	r1, #768
 343 001a 0548     		ldr	r0, .L17+8
 344              	.LVL19:
 132:Core/Src/can.c **** 
 345              		.loc 1 132 5 is_stmt 0 view .LVU110
 346 001c FFF7FEFF 		bl	HAL_GPIO_DeInit
 347              	.LVL20:
 135:Core/Src/can.c ****   /* USER CODE BEGIN CAN1_MspDeInit 1 */
 348              		.loc 1 135 5 is_stmt 1 view .LVU111
 349 0020 1420     		movs	r0, #20
 350 0022 FFF7FEFF 		bl	HAL_NVIC_DisableIRQ
 351              	.LVL21:
 352              		.loc 1 140 1 is_stmt 0 view .LVU112
 353 0026 F0E7     		b	.L13
 354              	.L18:
 355              		.align	2
 356              	.L17:
 357 0028 00640040 		.word	1073767424
 358 002c 00100240 		.word	1073876992
 359 0030 000C0140 		.word	1073810432
 360              		.cfi_endproc
 361              	.LFE67:
 363              		.section	.text.can_setup_message,"ax",%progbits
 364              		.align	1
 365              		.global	can_setup_message
 366              		.syntax unified
 367              		.thumb
 368              		.thumb_func
 370              	can_setup_message:
 371              	.LVL22:
 372              	.LFB68:
 141:Core/Src/can.c **** 
 142:Core/Src/can.c **** /* USER CODE BEGIN 1 */
 143:Core/Src/can.c **** void can_setup_message(CAN_TxHeaderTypeDef* TxHeader, void* vdata, uint8_t* pmsg, MSG_TYPES type) {
 373              		.loc 1 143 99 is_stmt 1 view -0
 374              		.cfi_startproc
 375              		@ args = 0, pretend = 0, frame = 0
 376              		@ frame_needed = 0, uses_anonymous_args = 0
 377              		@ link register save eliminated.
 144:Core/Src/can.c ****   TxHeader->StdId = type;
 378              		.loc 1 144 3 view .LVU114
 379              		.loc 1 144 19 is_stmt 0 view .LVU115
 380 0000 0360     		str	r3, [r0]
 145:Core/Src/can.c ****   pmsg = vdata;
 381              		.loc 1 145 3 is_stmt 1 view .LVU116
 382              	.LVL23:
 146:Core/Src/can.c **** }
 383              		.loc 1 146 1 is_stmt 0 view .LVU117
 384 0002 7047     		bx	lr
 385              		.cfi_endproc
 386              	.LFE68:
 388              		.global	hcan
 389              		.section	.bss.hcan,"aw",%nobits
 390              		.align	2
 393              	hcan:
 394 0000 00000000 		.space	40
ARM GAS  /tmp/cckxzEmz.s 			page 11


 394      00000000 
 394      00000000 
 394      00000000 
 394      00000000 
 395              		.global	txmailbox
 396              		.section	.bss.txmailbox,"aw",%nobits
 397              		.align	2
 400              	txmailbox:
 401 0000 00000000 		.space	4
 402              		.global	can_filter
 403              		.section	.bss.can_filter,"aw",%nobits
 404              		.align	2
 407              	can_filter:
 408 0000 00000000 		.space	40
 408      00000000 
 408      00000000 
 408      00000000 
 408      00000000 
 409              		.global	txheader
 410              		.section	.bss.txheader,"aw",%nobits
 411              		.align	2
 414              	txheader:
 415 0000 00000000 		.space	24
 415      00000000 
 415      00000000 
 415      00000000 
 415      00000000 
 416              		.text
 417              	.Letext0:
 418              		.file 2 "Drivers/CMSIS/Device/ST/STM32F1xx/Include/stm32f103xb.h"
 419              		.file 3 "/home/lorolol/.config/Code/User/globalStorage/bmd.stm32-for-vscode/@xpack-dev-tools/arm-n
 420              		.file 4 "/home/lorolol/.config/Code/User/globalStorage/bmd.stm32-for-vscode/@xpack-dev-tools/arm-n
 421              		.file 5 "Drivers/CMSIS/Device/ST/STM32F1xx/Include/stm32f1xx.h"
 422              		.file 6 "Drivers/STM32F1xx_HAL_Driver/Inc/stm32f1xx_hal_def.h"
 423              		.file 7 "Drivers/STM32F1xx_HAL_Driver/Inc/stm32f1xx_hal_gpio.h"
 424              		.file 8 "Drivers/STM32F1xx_HAL_Driver/Inc/stm32f1xx_hal_can.h"
 425              		.file 9 "../baja_utils/inc/msg.h"
 426              		.file 10 "Core/Inc/can.h"
 427              		.file 11 "Drivers/STM32F1xx_HAL_Driver/Inc/stm32f1xx_hal_cortex.h"
 428              		.file 12 "Core/Inc/main.h"
ARM GAS  /tmp/cckxzEmz.s 			page 12

