ARM GAS  /tmp/ccoSdDO7.s 			page 1


   1              		.cpu cortex-m3
   2              		.arch armv7-m
   3              		.fpu softvfp
   4              		.eabi_attribute 20, 1
   5              		.eabi_attribute 21, 1
   6              		.eabi_attribute 23, 3
   7              		.eabi_attribute 24, 1
   8              		.eabi_attribute 25, 1
   9              		.eabi_attribute 26, 1
  10              		.eabi_attribute 30, 1
  11              		.eabi_attribute 34, 1
  12              		.eabi_attribute 18, 4
  13              		.file	"can.c"
  14              		.text
  15              	.Ltext0:
  16              		.cfi_sections	.debug_frame
  17              		.file 1 "Core/Src/can.c"
  18              		.section	.text.MX_CAN_Init,"ax",%progbits
  19              		.align	1
  20              		.global	MX_CAN_Init
  21              		.syntax unified
  22              		.thumb
  23              		.thumb_func
  25              	MX_CAN_Init:
  26              	.LFB65:
   1:Core/Src/can.c **** /* USER CODE BEGIN Header */
   2:Core/Src/can.c **** /**
   3:Core/Src/can.c ****   ******************************************************************************
   4:Core/Src/can.c ****   * @file    can.c
   5:Core/Src/can.c ****   * @brief   This file provides code for the configuration
   6:Core/Src/can.c ****   *          of the CAN instances.
   7:Core/Src/can.c ****   ******************************************************************************
   8:Core/Src/can.c ****   * @attention
   9:Core/Src/can.c ****   *
  10:Core/Src/can.c ****   * Copyright (c) 2024 STMicroelectronics.
  11:Core/Src/can.c ****   * All rights reserved.
  12:Core/Src/can.c ****   *
  13:Core/Src/can.c ****   * This software is licensed under terms that can be found in the LICENSE file
  14:Core/Src/can.c ****   * in the root directory of this software component.
  15:Core/Src/can.c ****   * If no LICENSE file comes with this software, it is provided AS-IS.
  16:Core/Src/can.c ****   *
  17:Core/Src/can.c ****   ******************************************************************************
  18:Core/Src/can.c ****   */
  19:Core/Src/can.c **** /* USER CODE END Header */
  20:Core/Src/can.c **** /* Includes ------------------------------------------------------------------*/
  21:Core/Src/can.c **** #include "can.h"
  22:Core/Src/can.c **** 
  23:Core/Src/can.c **** /* USER CODE BEGIN 0 */
  24:Core/Src/can.c **** CAN_TxHeaderTypeDef txheader;
  25:Core/Src/can.c **** CAN_FilterTypeDef can_filter;
  26:Core/Src/can.c **** uint32_t txmailbox;
  27:Core/Src/can.c **** 
  28:Core/Src/can.c **** /* USER CODE END 0 */
  29:Core/Src/can.c **** 
  30:Core/Src/can.c **** CAN_HandleTypeDef hcan;
  31:Core/Src/can.c **** 
  32:Core/Src/can.c **** /* CAN init function */
ARM GAS  /tmp/ccoSdDO7.s 			page 2


  33:Core/Src/can.c **** void MX_CAN_Init(void)
  34:Core/Src/can.c **** {
  27              		.loc 1 34 1 view -0
  28              		.cfi_startproc
  29              		@ args = 0, pretend = 0, frame = 0
  30              		@ frame_needed = 0, uses_anonymous_args = 0
  31 0000 08B5     		push	{r3, lr}
  32              		.cfi_def_cfa_offset 8
  33              		.cfi_offset 3, -8
  34              		.cfi_offset 14, -4
  35:Core/Src/can.c **** 
  36:Core/Src/can.c ****   /* USER CODE BEGIN CAN_Init 0 */
  37:Core/Src/can.c ****   txheader.StdId = 0x103;
  35              		.loc 1 37 3 view .LVU1
  36              		.loc 1 37 18 is_stmt 0 view .LVU2
  37 0002 184A     		ldr	r2, .L5
  38 0004 40F20313 		movw	r3, #259
  39 0008 1360     		str	r3, [r2]
  38:Core/Src/can.c ****   txheader.DLC = 8;
  40              		.loc 1 38 3 is_stmt 1 view .LVU3
  41              		.loc 1 38 16 is_stmt 0 view .LVU4
  42 000a 0823     		movs	r3, #8
  43 000c 1361     		str	r3, [r2, #16]
  39:Core/Src/can.c ****   txheader.IDE = CAN_ID_STD;
  44              		.loc 1 39 3 is_stmt 1 view .LVU5
  45              		.loc 1 39 16 is_stmt 0 view .LVU6
  46 000e 0023     		movs	r3, #0
  47 0010 9360     		str	r3, [r2, #8]
  40:Core/Src/can.c ****   txheader.RTR = CAN_RTR_DATA;
  48              		.loc 1 40 3 is_stmt 1 view .LVU7
  49              		.loc 1 40 16 is_stmt 0 view .LVU8
  50 0012 D360     		str	r3, [r2, #12]
  41:Core/Src/can.c **** 
  42:Core/Src/can.c ****   can_filter.FilterActivation = CAN_FILTER_ENABLE;
  51              		.loc 1 42 3 is_stmt 1 view .LVU9
  52              		.loc 1 42 31 is_stmt 0 view .LVU10
  53 0014 144A     		ldr	r2, .L5+4
  54 0016 0121     		movs	r1, #1
  55 0018 1162     		str	r1, [r2, #32]
  43:Core/Src/can.c ****   can_filter.FilterBank = 1;
  56              		.loc 1 43 3 is_stmt 1 view .LVU11
  57              		.loc 1 43 25 is_stmt 0 view .LVU12
  58 001a 5161     		str	r1, [r2, #20]
  44:Core/Src/can.c ****   can_filter.FilterFIFOAssignment = CAN_FilterFIFO0;
  59              		.loc 1 44 3 is_stmt 1 view .LVU13
  60              		.loc 1 44 35 is_stmt 0 view .LVU14
  61 001c 1361     		str	r3, [r2, #16]
  45:Core/Src/can.c ****   can_filter.FilterMode = CAN_FILTERMODE_IDMASK;
  62              		.loc 1 45 3 is_stmt 1 view .LVU15
  63              		.loc 1 45 25 is_stmt 0 view .LVU16
  64 001e 9361     		str	r3, [r2, #24]
  46:Core/Src/can.c ****   can_filter.FilterScale = CAN_FILTERSCALE_32BIT;
  65              		.loc 1 46 3 is_stmt 1 view .LVU17
  66              		.loc 1 46 26 is_stmt 0 view .LVU18
  67 0020 D161     		str	r1, [r2, #28]
  47:Core/Src/can.c ****   can_filter.FilterIdHigh = 0x106 << 5;
  68              		.loc 1 47 3 is_stmt 1 view .LVU19
ARM GAS  /tmp/ccoSdDO7.s 			page 3


  69              		.loc 1 47 27 is_stmt 0 view .LVU20
  70 0022 4FF40351 		mov	r1, #8384
  71 0026 1160     		str	r1, [r2]
  48:Core/Src/can.c ****   can_filter.FilterIdLow = 0x0000;
  72              		.loc 1 48 3 is_stmt 1 view .LVU21
  73              		.loc 1 48 26 is_stmt 0 view .LVU22
  74 0028 5360     		str	r3, [r2, #4]
  49:Core/Src/can.c ****   can_filter.FilterMaskIdHigh = 0x106 << 5;
  75              		.loc 1 49 3 is_stmt 1 view .LVU23
  76              		.loc 1 49 31 is_stmt 0 view .LVU24
  77 002a 9160     		str	r1, [r2, #8]
  50:Core/Src/can.c ****   can_filter.FilterMaskIdLow = 0x0000;
  78              		.loc 1 50 3 is_stmt 1 view .LVU25
  79              		.loc 1 50 30 is_stmt 0 view .LVU26
  80 002c D360     		str	r3, [r2, #12]
  51:Core/Src/can.c ****   /* USER CODE END CAN_Init 0 */
  52:Core/Src/can.c **** 
  53:Core/Src/can.c ****   /* USER CODE BEGIN CAN_Init 1 */
  54:Core/Src/can.c **** 
  55:Core/Src/can.c ****   /* USER CODE END CAN_Init 1 */
  56:Core/Src/can.c ****   hcan.Instance = CAN1;
  81              		.loc 1 56 3 is_stmt 1 view .LVU27
  82              		.loc 1 56 17 is_stmt 0 view .LVU28
  83 002e 0F48     		ldr	r0, .L5+8
  84 0030 0F4A     		ldr	r2, .L5+12
  85 0032 0260     		str	r2, [r0]
  57:Core/Src/can.c ****   hcan.Init.Prescaler = 20;
  86              		.loc 1 57 3 is_stmt 1 view .LVU29
  87              		.loc 1 57 23 is_stmt 0 view .LVU30
  88 0034 1422     		movs	r2, #20
  89 0036 4260     		str	r2, [r0, #4]
  58:Core/Src/can.c ****   hcan.Init.Mode = CAN_MODE_NORMAL;
  90              		.loc 1 58 3 is_stmt 1 view .LVU31
  91              		.loc 1 58 18 is_stmt 0 view .LVU32
  92 0038 8360     		str	r3, [r0, #8]
  59:Core/Src/can.c ****   hcan.Init.SyncJumpWidth = CAN_SJW_1TQ;
  93              		.loc 1 59 3 is_stmt 1 view .LVU33
  94              		.loc 1 59 27 is_stmt 0 view .LVU34
  95 003a C360     		str	r3, [r0, #12]
  60:Core/Src/can.c ****   hcan.Init.TimeSeg1 = CAN_BS1_15TQ;
  96              		.loc 1 60 3 is_stmt 1 view .LVU35
  97              		.loc 1 60 22 is_stmt 0 view .LVU36
  98 003c 4FF46022 		mov	r2, #917504
  99 0040 0261     		str	r2, [r0, #16]
  61:Core/Src/can.c ****   hcan.Init.TimeSeg2 = CAN_BS2_2TQ;
 100              		.loc 1 61 3 is_stmt 1 view .LVU37
 101              		.loc 1 61 22 is_stmt 0 view .LVU38
 102 0042 4FF48012 		mov	r2, #1048576
 103 0046 4261     		str	r2, [r0, #20]
  62:Core/Src/can.c ****   hcan.Init.TimeTriggeredMode = DISABLE;
 104              		.loc 1 62 3 is_stmt 1 view .LVU39
 105              		.loc 1 62 31 is_stmt 0 view .LVU40
 106 0048 0376     		strb	r3, [r0, #24]
  63:Core/Src/can.c ****   hcan.Init.AutoBusOff = DISABLE;
 107              		.loc 1 63 3 is_stmt 1 view .LVU41
 108              		.loc 1 63 24 is_stmt 0 view .LVU42
 109 004a 4376     		strb	r3, [r0, #25]
ARM GAS  /tmp/ccoSdDO7.s 			page 4


  64:Core/Src/can.c ****   hcan.Init.AutoWakeUp = DISABLE;
 110              		.loc 1 64 3 is_stmt 1 view .LVU43
 111              		.loc 1 64 24 is_stmt 0 view .LVU44
 112 004c 8376     		strb	r3, [r0, #26]
  65:Core/Src/can.c ****   hcan.Init.AutoRetransmission = DISABLE;
 113              		.loc 1 65 3 is_stmt 1 view .LVU45
 114              		.loc 1 65 32 is_stmt 0 view .LVU46
 115 004e C376     		strb	r3, [r0, #27]
  66:Core/Src/can.c ****   hcan.Init.ReceiveFifoLocked = DISABLE;
 116              		.loc 1 66 3 is_stmt 1 view .LVU47
 117              		.loc 1 66 31 is_stmt 0 view .LVU48
 118 0050 0377     		strb	r3, [r0, #28]
  67:Core/Src/can.c ****   hcan.Init.TransmitFifoPriority = DISABLE;
 119              		.loc 1 67 3 is_stmt 1 view .LVU49
 120              		.loc 1 67 34 is_stmt 0 view .LVU50
 121 0052 4377     		strb	r3, [r0, #29]
  68:Core/Src/can.c ****   if (HAL_CAN_Init(&hcan) != HAL_OK)
 122              		.loc 1 68 3 is_stmt 1 view .LVU51
 123              		.loc 1 68 7 is_stmt 0 view .LVU52
 124 0054 FFF7FEFF 		bl	HAL_CAN_Init
 125              	.LVL0:
 126              		.loc 1 68 6 discriminator 1 view .LVU53
 127 0058 00B9     		cbnz	r0, .L4
 128              	.L1:
  69:Core/Src/can.c ****   {
  70:Core/Src/can.c ****     Error_Handler();
  71:Core/Src/can.c ****   }
  72:Core/Src/can.c ****   /* USER CODE BEGIN CAN_Init 2 */
  73:Core/Src/can.c **** 
  74:Core/Src/can.c ****   /* USER CODE END CAN_Init 2 */
  75:Core/Src/can.c **** 
  76:Core/Src/can.c **** }
 129              		.loc 1 76 1 view .LVU54
 130 005a 08BD     		pop	{r3, pc}
 131              	.L4:
  70:Core/Src/can.c ****   }
 132              		.loc 1 70 5 is_stmt 1 view .LVU55
 133 005c FFF7FEFF 		bl	Error_Handler
 134              	.LVL1:
 135              		.loc 1 76 1 is_stmt 0 view .LVU56
 136 0060 FBE7     		b	.L1
 137              	.L6:
 138 0062 00BF     		.align	2
 139              	.L5:
 140 0064 00000000 		.word	txheader
 141 0068 00000000 		.word	can_filter
 142 006c 00000000 		.word	hcan
 143 0070 00640040 		.word	1073767424
 144              		.cfi_endproc
 145              	.LFE65:
 147              		.section	.text.HAL_CAN_MspInit,"ax",%progbits
 148              		.align	1
 149              		.global	HAL_CAN_MspInit
 150              		.syntax unified
 151              		.thumb
 152              		.thumb_func
 154              	HAL_CAN_MspInit:
ARM GAS  /tmp/ccoSdDO7.s 			page 5


 155              	.LVL2:
 156              	.LFB66:
  77:Core/Src/can.c **** 
  78:Core/Src/can.c **** void HAL_CAN_MspInit(CAN_HandleTypeDef* canHandle)
  79:Core/Src/can.c **** {
 157              		.loc 1 79 1 is_stmt 1 view -0
 158              		.cfi_startproc
 159              		@ args = 0, pretend = 0, frame = 24
 160              		@ frame_needed = 0, uses_anonymous_args = 0
 161              		.loc 1 79 1 is_stmt 0 view .LVU58
 162 0000 10B5     		push	{r4, lr}
 163              		.cfi_def_cfa_offset 8
 164              		.cfi_offset 4, -8
 165              		.cfi_offset 14, -4
 166 0002 86B0     		sub	sp, sp, #24
 167              		.cfi_def_cfa_offset 32
  80:Core/Src/can.c **** 
  81:Core/Src/can.c ****   GPIO_InitTypeDef GPIO_InitStruct = {0};
 168              		.loc 1 81 3 is_stmt 1 view .LVU59
 169              		.loc 1 81 20 is_stmt 0 view .LVU60
 170 0004 0023     		movs	r3, #0
 171 0006 0293     		str	r3, [sp, #8]
 172 0008 0393     		str	r3, [sp, #12]
 173 000a 0493     		str	r3, [sp, #16]
 174 000c 0593     		str	r3, [sp, #20]
  82:Core/Src/can.c ****   if(canHandle->Instance==CAN1)
 175              		.loc 1 82 3 is_stmt 1 view .LVU61
 176              		.loc 1 82 15 is_stmt 0 view .LVU62
 177 000e 0268     		ldr	r2, [r0]
 178              		.loc 1 82 5 view .LVU63
 179 0010 1E4B     		ldr	r3, .L11
 180 0012 9A42     		cmp	r2, r3
 181 0014 01D0     		beq	.L10
 182              	.LVL3:
 183              	.L7:
  83:Core/Src/can.c ****   {
  84:Core/Src/can.c ****   /* USER CODE BEGIN CAN1_MspInit 0 */
  85:Core/Src/can.c **** 
  86:Core/Src/can.c ****   /* USER CODE END CAN1_MspInit 0 */
  87:Core/Src/can.c ****     /* CAN1 clock enable */
  88:Core/Src/can.c ****     __HAL_RCC_CAN1_CLK_ENABLE();
  89:Core/Src/can.c **** 
  90:Core/Src/can.c ****     __HAL_RCC_GPIOB_CLK_ENABLE();
  91:Core/Src/can.c ****     /**CAN GPIO Configuration
  92:Core/Src/can.c ****     PB8     ------> CAN_RX
  93:Core/Src/can.c ****     PB9     ------> CAN_TX
  94:Core/Src/can.c ****     */
  95:Core/Src/can.c ****     GPIO_InitStruct.Pin = GPIO_PIN_8;
  96:Core/Src/can.c ****     GPIO_InitStruct.Mode = GPIO_MODE_INPUT;
  97:Core/Src/can.c ****     GPIO_InitStruct.Pull = GPIO_NOPULL;
  98:Core/Src/can.c ****     HAL_GPIO_Init(GPIOB, &GPIO_InitStruct);
  99:Core/Src/can.c **** 
 100:Core/Src/can.c ****     GPIO_InitStruct.Pin = GPIO_PIN_9;
 101:Core/Src/can.c ****     GPIO_InitStruct.Mode = GPIO_MODE_AF_PP;
 102:Core/Src/can.c ****     GPIO_InitStruct.Speed = GPIO_SPEED_FREQ_HIGH;
 103:Core/Src/can.c ****     HAL_GPIO_Init(GPIOB, &GPIO_InitStruct);
 104:Core/Src/can.c **** 
ARM GAS  /tmp/ccoSdDO7.s 			page 6


 105:Core/Src/can.c ****     __HAL_AFIO_REMAP_CAN1_2();
 106:Core/Src/can.c **** 
 107:Core/Src/can.c ****     /* CAN1 interrupt Init */
 108:Core/Src/can.c ****     HAL_NVIC_SetPriority(USB_LP_CAN1_RX0_IRQn, 5, 0);
 109:Core/Src/can.c ****     HAL_NVIC_EnableIRQ(USB_LP_CAN1_RX0_IRQn);
 110:Core/Src/can.c ****   /* USER CODE BEGIN CAN1_MspInit 1 */
 111:Core/Src/can.c **** 
 112:Core/Src/can.c ****   /* USER CODE END CAN1_MspInit 1 */
 113:Core/Src/can.c ****   }
 114:Core/Src/can.c **** }
 184              		.loc 1 114 1 view .LVU64
 185 0016 06B0     		add	sp, sp, #24
 186              		.cfi_remember_state
 187              		.cfi_def_cfa_offset 8
 188              		@ sp needed
 189 0018 10BD     		pop	{r4, pc}
 190              	.LVL4:
 191              	.L10:
 192              		.cfi_restore_state
  88:Core/Src/can.c **** 
 193              		.loc 1 88 5 is_stmt 1 view .LVU65
 194              	.LBB2:
  88:Core/Src/can.c **** 
 195              		.loc 1 88 5 view .LVU66
  88:Core/Src/can.c **** 
 196              		.loc 1 88 5 view .LVU67
 197 001a 03F5D633 		add	r3, r3, #109568
 198 001e DA69     		ldr	r2, [r3, #28]
 199 0020 42F00072 		orr	r2, r2, #33554432
 200 0024 DA61     		str	r2, [r3, #28]
  88:Core/Src/can.c **** 
 201              		.loc 1 88 5 view .LVU68
 202 0026 DA69     		ldr	r2, [r3, #28]
 203 0028 02F00072 		and	r2, r2, #33554432
 204 002c 0092     		str	r2, [sp]
  88:Core/Src/can.c **** 
 205              		.loc 1 88 5 view .LVU69
 206 002e 009A     		ldr	r2, [sp]
 207              	.LBE2:
  88:Core/Src/can.c **** 
 208              		.loc 1 88 5 view .LVU70
  90:Core/Src/can.c ****     /**CAN GPIO Configuration
 209              		.loc 1 90 5 view .LVU71
 210              	.LBB3:
  90:Core/Src/can.c ****     /**CAN GPIO Configuration
 211              		.loc 1 90 5 view .LVU72
  90:Core/Src/can.c ****     /**CAN GPIO Configuration
 212              		.loc 1 90 5 view .LVU73
 213 0030 9A69     		ldr	r2, [r3, #24]
 214 0032 42F00802 		orr	r2, r2, #8
 215 0036 9A61     		str	r2, [r3, #24]
  90:Core/Src/can.c ****     /**CAN GPIO Configuration
 216              		.loc 1 90 5 view .LVU74
 217 0038 9B69     		ldr	r3, [r3, #24]
 218 003a 03F00803 		and	r3, r3, #8
 219 003e 0193     		str	r3, [sp, #4]
  90:Core/Src/can.c ****     /**CAN GPIO Configuration
ARM GAS  /tmp/ccoSdDO7.s 			page 7


 220              		.loc 1 90 5 view .LVU75
 221 0040 019B     		ldr	r3, [sp, #4]
 222              	.LBE3:
  90:Core/Src/can.c ****     /**CAN GPIO Configuration
 223              		.loc 1 90 5 view .LVU76
  95:Core/Src/can.c ****     GPIO_InitStruct.Mode = GPIO_MODE_INPUT;
 224              		.loc 1 95 5 view .LVU77
  95:Core/Src/can.c ****     GPIO_InitStruct.Mode = GPIO_MODE_INPUT;
 225              		.loc 1 95 25 is_stmt 0 view .LVU78
 226 0042 4FF48073 		mov	r3, #256
 227 0046 0293     		str	r3, [sp, #8]
  96:Core/Src/can.c ****     GPIO_InitStruct.Pull = GPIO_NOPULL;
 228              		.loc 1 96 5 is_stmt 1 view .LVU79
  97:Core/Src/can.c ****     HAL_GPIO_Init(GPIOB, &GPIO_InitStruct);
 229              		.loc 1 97 5 view .LVU80
  98:Core/Src/can.c **** 
 230              		.loc 1 98 5 view .LVU81
 231 0048 114C     		ldr	r4, .L11+4
 232 004a 02A9     		add	r1, sp, #8
 233 004c 2046     		mov	r0, r4
 234              	.LVL5:
  98:Core/Src/can.c **** 
 235              		.loc 1 98 5 is_stmt 0 view .LVU82
 236 004e FFF7FEFF 		bl	HAL_GPIO_Init
 237              	.LVL6:
 100:Core/Src/can.c ****     GPIO_InitStruct.Mode = GPIO_MODE_AF_PP;
 238              		.loc 1 100 5 is_stmt 1 view .LVU83
 100:Core/Src/can.c ****     GPIO_InitStruct.Mode = GPIO_MODE_AF_PP;
 239              		.loc 1 100 25 is_stmt 0 view .LVU84
 240 0052 4FF40073 		mov	r3, #512
 241 0056 0293     		str	r3, [sp, #8]
 101:Core/Src/can.c ****     GPIO_InitStruct.Speed = GPIO_SPEED_FREQ_HIGH;
 242              		.loc 1 101 5 is_stmt 1 view .LVU85
 101:Core/Src/can.c ****     GPIO_InitStruct.Speed = GPIO_SPEED_FREQ_HIGH;
 243              		.loc 1 101 26 is_stmt 0 view .LVU86
 244 0058 0223     		movs	r3, #2
 245 005a 0393     		str	r3, [sp, #12]
 102:Core/Src/can.c ****     HAL_GPIO_Init(GPIOB, &GPIO_InitStruct);
 246              		.loc 1 102 5 is_stmt 1 view .LVU87
 102:Core/Src/can.c ****     HAL_GPIO_Init(GPIOB, &GPIO_InitStruct);
 247              		.loc 1 102 27 is_stmt 0 view .LVU88
 248 005c 0323     		movs	r3, #3
 249 005e 0593     		str	r3, [sp, #20]
 103:Core/Src/can.c **** 
 250              		.loc 1 103 5 is_stmt 1 view .LVU89
 251 0060 02A9     		add	r1, sp, #8
 252 0062 2046     		mov	r0, r4
 253 0064 FFF7FEFF 		bl	HAL_GPIO_Init
 254              	.LVL7:
 105:Core/Src/can.c **** 
 255              		.loc 1 105 5 view .LVU90
 256              	.LBB4:
 105:Core/Src/can.c **** 
 257              		.loc 1 105 5 view .LVU91
 258 0068 0A4A     		ldr	r2, .L11+8
 259 006a 5368     		ldr	r3, [r2, #4]
 260              	.LVL8:
ARM GAS  /tmp/ccoSdDO7.s 			page 8


 105:Core/Src/can.c **** 
 261              		.loc 1 105 5 view .LVU92
 262 006c 23F4C043 		bic	r3, r3, #24576
 263              	.LVL9:
 105:Core/Src/can.c **** 
 264              		.loc 1 105 5 view .LVU93
 105:Core/Src/can.c **** 
 265              		.loc 1 105 5 view .LVU94
 266 0070 43F0E063 		orr	r3, r3, #117440512
 267              	.LVL10:
 105:Core/Src/can.c **** 
 268              		.loc 1 105 5 is_stmt 0 view .LVU95
 269 0074 43F48043 		orr	r3, r3, #16384
 270              	.LVL11:
 105:Core/Src/can.c **** 
 271              		.loc 1 105 5 is_stmt 1 view .LVU96
 272 0078 5360     		str	r3, [r2, #4]
 273              	.LBE4:
 105:Core/Src/can.c **** 
 274              		.loc 1 105 5 view .LVU97
 108:Core/Src/can.c ****     HAL_NVIC_EnableIRQ(USB_LP_CAN1_RX0_IRQn);
 275              		.loc 1 108 5 view .LVU98
 276 007a 0022     		movs	r2, #0
 277 007c 0521     		movs	r1, #5
 278 007e 1420     		movs	r0, #20
 279 0080 FFF7FEFF 		bl	HAL_NVIC_SetPriority
 280              	.LVL12:
 109:Core/Src/can.c ****   /* USER CODE BEGIN CAN1_MspInit 1 */
 281              		.loc 1 109 5 view .LVU99
 282 0084 1420     		movs	r0, #20
 283 0086 FFF7FEFF 		bl	HAL_NVIC_EnableIRQ
 284              	.LVL13:
 285              		.loc 1 114 1 is_stmt 0 view .LVU100
 286 008a C4E7     		b	.L7
 287              	.L12:
 288              		.align	2
 289              	.L11:
 290 008c 00640040 		.word	1073767424
 291 0090 000C0140 		.word	1073810432
 292 0094 00000140 		.word	1073807360
 293              		.cfi_endproc
 294              	.LFE66:
 296              		.section	.text.HAL_CAN_MspDeInit,"ax",%progbits
 297              		.align	1
 298              		.global	HAL_CAN_MspDeInit
 299              		.syntax unified
 300              		.thumb
 301              		.thumb_func
 303              	HAL_CAN_MspDeInit:
 304              	.LVL14:
 305              	.LFB67:
 115:Core/Src/can.c **** 
 116:Core/Src/can.c **** void HAL_CAN_MspDeInit(CAN_HandleTypeDef* canHandle)
 117:Core/Src/can.c **** {
 306              		.loc 1 117 1 is_stmt 1 view -0
 307              		.cfi_startproc
 308              		@ args = 0, pretend = 0, frame = 0
ARM GAS  /tmp/ccoSdDO7.s 			page 9


 309              		@ frame_needed = 0, uses_anonymous_args = 0
 310              		.loc 1 117 1 is_stmt 0 view .LVU102
 311 0000 08B5     		push	{r3, lr}
 312              		.cfi_def_cfa_offset 8
 313              		.cfi_offset 3, -8
 314              		.cfi_offset 14, -4
 118:Core/Src/can.c **** 
 119:Core/Src/can.c ****   if(canHandle->Instance==CAN1)
 315              		.loc 1 119 3 is_stmt 1 view .LVU103
 316              		.loc 1 119 15 is_stmt 0 view .LVU104
 317 0002 0268     		ldr	r2, [r0]
 318              		.loc 1 119 5 view .LVU105
 319 0004 084B     		ldr	r3, .L17
 320 0006 9A42     		cmp	r2, r3
 321 0008 00D0     		beq	.L16
 322              	.LVL15:
 323              	.L13:
 120:Core/Src/can.c ****   {
 121:Core/Src/can.c ****   /* USER CODE BEGIN CAN1_MspDeInit 0 */
 122:Core/Src/can.c **** 
 123:Core/Src/can.c ****   /* USER CODE END CAN1_MspDeInit 0 */
 124:Core/Src/can.c ****     /* Peripheral clock disable */
 125:Core/Src/can.c ****     __HAL_RCC_CAN1_CLK_DISABLE();
 126:Core/Src/can.c **** 
 127:Core/Src/can.c ****     /**CAN GPIO Configuration
 128:Core/Src/can.c ****     PB8     ------> CAN_RX
 129:Core/Src/can.c ****     PB9     ------> CAN_TX
 130:Core/Src/can.c ****     */
 131:Core/Src/can.c ****     HAL_GPIO_DeInit(GPIOB, GPIO_PIN_8|GPIO_PIN_9);
 132:Core/Src/can.c **** 
 133:Core/Src/can.c ****     /* CAN1 interrupt Deinit */
 134:Core/Src/can.c ****     HAL_NVIC_DisableIRQ(USB_LP_CAN1_RX0_IRQn);
 135:Core/Src/can.c ****   /* USER CODE BEGIN CAN1_MspDeInit 1 */
 136:Core/Src/can.c **** 
 137:Core/Src/can.c ****   /* USER CODE END CAN1_MspDeInit 1 */
 138:Core/Src/can.c ****   }
 139:Core/Src/can.c **** }
 324              		.loc 1 139 1 view .LVU106
 325 000a 08BD     		pop	{r3, pc}
 326              	.LVL16:
 327              	.L16:
 125:Core/Src/can.c **** 
 328              		.loc 1 125 5 is_stmt 1 view .LVU107
 329 000c 074A     		ldr	r2, .L17+4
 330 000e D369     		ldr	r3, [r2, #28]
 331 0010 23F00073 		bic	r3, r3, #33554432
 332 0014 D361     		str	r3, [r2, #28]
 131:Core/Src/can.c **** 
 333              		.loc 1 131 5 view .LVU108
 334 0016 4FF44071 		mov	r1, #768
 335 001a 0548     		ldr	r0, .L17+8
 336              	.LVL17:
 131:Core/Src/can.c **** 
 337              		.loc 1 131 5 is_stmt 0 view .LVU109
 338 001c FFF7FEFF 		bl	HAL_GPIO_DeInit
 339              	.LVL18:
 134:Core/Src/can.c ****   /* USER CODE BEGIN CAN1_MspDeInit 1 */
ARM GAS  /tmp/ccoSdDO7.s 			page 10


 340              		.loc 1 134 5 is_stmt 1 view .LVU110
 341 0020 1420     		movs	r0, #20
 342 0022 FFF7FEFF 		bl	HAL_NVIC_DisableIRQ
 343              	.LVL19:
 344              		.loc 1 139 1 is_stmt 0 view .LVU111
 345 0026 F0E7     		b	.L13
 346              	.L18:
 347              		.align	2
 348              	.L17:
 349 0028 00640040 		.word	1073767424
 350 002c 00100240 		.word	1073876992
 351 0030 000C0140 		.word	1073810432
 352              		.cfi_endproc
 353              	.LFE67:
 355              		.global	hcan
 356              		.section	.bss.hcan,"aw",%nobits
 357              		.align	2
 360              	hcan:
 361 0000 00000000 		.space	40
 361      00000000 
 361      00000000 
 361      00000000 
 361      00000000 
 362              		.global	txmailbox
 363              		.section	.bss.txmailbox,"aw",%nobits
 364              		.align	2
 367              	txmailbox:
 368 0000 00000000 		.space	4
 369              		.global	can_filter
 370              		.section	.bss.can_filter,"aw",%nobits
 371              		.align	2
 374              	can_filter:
 375 0000 00000000 		.space	40
 375      00000000 
 375      00000000 
 375      00000000 
 375      00000000 
 376              		.global	txheader
 377              		.section	.bss.txheader,"aw",%nobits
 378              		.align	2
 381              	txheader:
 382 0000 00000000 		.space	24
 382      00000000 
 382      00000000 
 382      00000000 
 382      00000000 
 383              		.text
 384              	.Letext0:
 385              		.file 2 "Drivers/CMSIS/Device/ST/STM32F1xx/Include/stm32f103xb.h"
 386              		.file 3 "/home/lorolol/.config/Code/User/globalStorage/bmd.stm32-for-vscode/@xpack-dev-tools/arm-n
 387              		.file 4 "/home/lorolol/.config/Code/User/globalStorage/bmd.stm32-for-vscode/@xpack-dev-tools/arm-n
 388              		.file 5 "Drivers/CMSIS/Device/ST/STM32F1xx/Include/stm32f1xx.h"
 389              		.file 6 "Drivers/STM32F1xx_HAL_Driver/Inc/stm32f1xx_hal_def.h"
 390              		.file 7 "Drivers/STM32F1xx_HAL_Driver/Inc/stm32f1xx_hal_gpio.h"
 391              		.file 8 "Drivers/STM32F1xx_HAL_Driver/Inc/stm32f1xx_hal_can.h"
 392              		.file 9 "Core/Inc/can.h"
 393              		.file 10 "Drivers/STM32F1xx_HAL_Driver/Inc/stm32f1xx_hal_cortex.h"
ARM GAS  /tmp/ccoSdDO7.s 			page 11


 394              		.file 11 "Core/Inc/main.h"
ARM GAS  /tmp/ccoSdDO7.s 			page 12


DEFINED SYMBOLS
                            *ABS*:00000000 can.c
     /tmp/ccoSdDO7.s:19     .text.MX_CAN_Init:00000000 $t
     /tmp/ccoSdDO7.s:25     .text.MX_CAN_Init:00000000 MX_CAN_Init
     /tmp/ccoSdDO7.s:140    .text.MX_CAN_Init:00000064 $d
     /tmp/ccoSdDO7.s:381    .bss.txheader:00000000 txheader
     /tmp/ccoSdDO7.s:374    .bss.can_filter:00000000 can_filter
     /tmp/ccoSdDO7.s:360    .bss.hcan:00000000 hcan
     /tmp/ccoSdDO7.s:148    .text.HAL_CAN_MspInit:00000000 $t
     /tmp/ccoSdDO7.s:154    .text.HAL_CAN_MspInit:00000000 HAL_CAN_MspInit
     /tmp/ccoSdDO7.s:290    .text.HAL_CAN_MspInit:0000008c $d
     /tmp/ccoSdDO7.s:297    .text.HAL_CAN_MspDeInit:00000000 $t
     /tmp/ccoSdDO7.s:303    .text.HAL_CAN_MspDeInit:00000000 HAL_CAN_MspDeInit
     /tmp/ccoSdDO7.s:349    .text.HAL_CAN_MspDeInit:00000028 $d
     /tmp/ccoSdDO7.s:357    .bss.hcan:00000000 $d
     /tmp/ccoSdDO7.s:367    .bss.txmailbox:00000000 txmailbox
     /tmp/ccoSdDO7.s:364    .bss.txmailbox:00000000 $d
     /tmp/ccoSdDO7.s:371    .bss.can_filter:00000000 $d
     /tmp/ccoSdDO7.s:378    .bss.txheader:00000000 $d

UNDEFINED SYMBOLS
HAL_CAN_Init
Error_Handler
HAL_GPIO_Init
HAL_NVIC_SetPriority
HAL_NVIC_EnableIRQ
HAL_GPIO_DeInit
HAL_NVIC_DisableIRQ
